
SolderingStation.elf:     file format elf32-avr

Sections:
Idx Name          Size      VMA       LMA       File off  Algn
  0 .data         00000042  00800100  00000b5e  00000bf2  2**0
                  CONTENTS, ALLOC, LOAD, DATA
  1 .text         00000b5e  00000000  00000000  00000094  2**1
                  CONTENTS, ALLOC, LOAD, READONLY, CODE
  2 .bss          0000000d  00800142  00800142  00000c34  2**0
                  ALLOC
  3 .comment      00000030  00000000  00000000  00000c34  2**0
                  CONTENTS, READONLY
  4 .note.gnu.avr.deviceinfo 00000040  00000000  00000000  00000c64  2**2
                  CONTENTS, READONLY
  5 .debug_aranges 000000f0  00000000  00000000  00000ca4  2**0
                  CONTENTS, READONLY, DEBUGGING
  6 .debug_info   00000f70  00000000  00000000  00000d94  2**0
                  CONTENTS, READONLY, DEBUGGING
  7 .debug_abbrev 000003e9  00000000  00000000  00001d04  2**0
                  CONTENTS, READONLY, DEBUGGING
  8 .debug_line   000004c3  00000000  00000000  000020ed  2**0
                  CONTENTS, READONLY, DEBUGGING
  9 .debug_frame  00000304  00000000  00000000  000025b0  2**2
                  CONTENTS, READONLY, DEBUGGING
 10 .debug_str    000003d0  00000000  00000000  000028b4  2**0
                  CONTENTS, READONLY, DEBUGGING
 11 .debug_loc    00000bf9  00000000  00000000  00002c84  2**0
                  CONTENTS, READONLY, DEBUGGING
 12 .debug_ranges 000000e8  00000000  00000000  0000387d  2**0
                  CONTENTS, READONLY, DEBUGGING

Disassembly of section .text:

00000000 <__vectors>:
   0:	0c 94 34 00 	jmp	0x68	; 0x68 <__ctors_end>
   4:	0c 94 51 00 	jmp	0xa2	; 0xa2 <__bad_interrupt>
   8:	0c 94 51 00 	jmp	0xa2	; 0xa2 <__bad_interrupt>
   c:	0c 94 51 00 	jmp	0xa2	; 0xa2 <__bad_interrupt>
  10:	0c 94 51 00 	jmp	0xa2	; 0xa2 <__bad_interrupt>
  14:	0c 94 51 00 	jmp	0xa2	; 0xa2 <__bad_interrupt>
  18:	0c 94 51 00 	jmp	0xa2	; 0xa2 <__bad_interrupt>
  1c:	0c 94 51 00 	jmp	0xa2	; 0xa2 <__bad_interrupt>
  20:	0c 94 51 00 	jmp	0xa2	; 0xa2 <__bad_interrupt>
  24:	0c 94 51 00 	jmp	0xa2	; 0xa2 <__bad_interrupt>
  28:	0c 94 51 00 	jmp	0xa2	; 0xa2 <__bad_interrupt>
  2c:	0c 94 51 00 	jmp	0xa2	; 0xa2 <__bad_interrupt>
  30:	0c 94 51 00 	jmp	0xa2	; 0xa2 <__bad_interrupt>
  34:	0c 94 5e 02 	jmp	0x4bc	; 0x4bc <__vector_13>
  38:	0c 94 51 00 	jmp	0xa2	; 0xa2 <__bad_interrupt>
  3c:	0c 94 51 00 	jmp	0xa2	; 0xa2 <__bad_interrupt>
  40:	0c 94 51 00 	jmp	0xa2	; 0xa2 <__bad_interrupt>
  44:	0c 94 51 00 	jmp	0xa2	; 0xa2 <__bad_interrupt>
  48:	0c 94 51 00 	jmp	0xa2	; 0xa2 <__bad_interrupt>
  4c:	0c 94 51 00 	jmp	0xa2	; 0xa2 <__bad_interrupt>
  50:	0c 94 51 00 	jmp	0xa2	; 0xa2 <__bad_interrupt>
  54:	0c 94 51 00 	jmp	0xa2	; 0xa2 <__bad_interrupt>
  58:	0c 94 51 00 	jmp	0xa2	; 0xa2 <__bad_interrupt>
  5c:	0c 94 51 00 	jmp	0xa2	; 0xa2 <__bad_interrupt>
  60:	0c 94 51 00 	jmp	0xa2	; 0xa2 <__bad_interrupt>
  64:	0c 94 51 00 	jmp	0xa2	; 0xa2 <__bad_interrupt>

00000068 <__ctors_end>:
  68:	11 24       	eor	r1, r1
  6a:	1f be       	out	0x3f, r1	; 63
  6c:	cf ef       	ldi	r28, 0xFF	; 255
  6e:	d8 e0       	ldi	r29, 0x08	; 8
  70:	de bf       	out	0x3e, r29	; 62
  72:	cd bf       	out	0x3d, r28	; 61

00000074 <__do_copy_data>:
  74:	11 e0       	ldi	r17, 0x01	; 1
  76:	a0 e0       	ldi	r26, 0x00	; 0
  78:	b1 e0       	ldi	r27, 0x01	; 1
  7a:	ee e5       	ldi	r30, 0x5E	; 94
  7c:	fb e0       	ldi	r31, 0x0B	; 11
  7e:	02 c0       	rjmp	.+4      	; 0x84 <__do_copy_data+0x10>
  80:	05 90       	lpm	r0, Z+
  82:	0d 92       	st	X+, r0
  84:	a2 34       	cpi	r26, 0x42	; 66
  86:	b1 07       	cpc	r27, r17
  88:	d9 f7       	brne	.-10     	; 0x80 <__do_copy_data+0xc>

0000008a <__do_clear_bss>:
  8a:	21 e0       	ldi	r18, 0x01	; 1
  8c:	a2 e4       	ldi	r26, 0x42	; 66
  8e:	b1 e0       	ldi	r27, 0x01	; 1
  90:	01 c0       	rjmp	.+2      	; 0x94 <.do_clear_bss_start>

00000092 <.do_clear_bss_loop>:
  92:	1d 92       	st	X+, r1

00000094 <.do_clear_bss_start>:
  94:	af 34       	cpi	r26, 0x4F	; 79
  96:	b2 07       	cpc	r27, r18
  98:	e1 f7       	brne	.-8      	; 0x92 <.do_clear_bss_loop>
  9a:	0e 94 f1 02 	call	0x5e2	; 0x5e2 <main>
  9e:	0c 94 ad 05 	jmp	0xb5a	; 0xb5a <_exit>

000000a2 <__bad_interrupt>:
  a2:	0c 94 00 00 	jmp	0	; 0x0 <__vectors>

000000a6 <lcd_10us_delay>:
  a6:	cf 93       	push	r28
  a8:	df 93       	push	r29
  aa:	00 d0       	rcall	.+0      	; 0xac <lcd_10us_delay+0x6>
  ac:	00 d0       	rcall	.+0      	; 0xae <lcd_10us_delay+0x8>
  ae:	cd b7       	in	r28, 0x3d	; 61
  b0:	de b7       	in	r29, 0x3e	; 62
  b2:	69 83       	std	Y+1, r22	; 0x01
  b4:	7a 83       	std	Y+2, r23	; 0x02
  b6:	8b 83       	std	Y+3, r24	; 0x03
  b8:	9c 83       	std	Y+4, r25	; 0x04
  ba:	89 81       	ldd	r24, Y+1	; 0x01
  bc:	9a 81       	ldd	r25, Y+2	; 0x02
  be:	ab 81       	ldd	r26, Y+3	; 0x03
  c0:	bc 81       	ldd	r27, Y+4	; 0x04
  c2:	88 0f       	add	r24, r24
  c4:	99 1f       	adc	r25, r25
  c6:	aa 1f       	adc	r26, r26
  c8:	bb 1f       	adc	r27, r27
  ca:	88 0f       	add	r24, r24
  cc:	99 1f       	adc	r25, r25
  ce:	aa 1f       	adc	r26, r26
  d0:	bb 1f       	adc	r27, r27
  d2:	88 0f       	add	r24, r24
  d4:	99 1f       	adc	r25, r25
  d6:	aa 1f       	adc	r26, r26
  d8:	bb 1f       	adc	r27, r27
  da:	88 0f       	add	r24, r24
  dc:	99 1f       	adc	r25, r25
  de:	aa 1f       	adc	r26, r26
  e0:	bb 1f       	adc	r27, r27
  e2:	89 83       	std	Y+1, r24	; 0x01
  e4:	9a 83       	std	Y+2, r25	; 0x02
  e6:	ab 83       	std	Y+3, r26	; 0x03
  e8:	bc 83       	std	Y+4, r27	; 0x04
  ea:	89 81       	ldd	r24, Y+1	; 0x01
  ec:	9a 81       	ldd	r25, Y+2	; 0x02
  ee:	ab 81       	ldd	r26, Y+3	; 0x03
  f0:	bc 81       	ldd	r27, Y+4	; 0x04
  f2:	89 2b       	or	r24, r25
  f4:	8a 2b       	or	r24, r26
  f6:	8b 2b       	or	r24, r27
  f8:	99 f0       	breq	.+38     	; 0x120 <lcd_10us_delay+0x7a>
  fa:	89 81       	ldd	r24, Y+1	; 0x01
  fc:	9a 81       	ldd	r25, Y+2	; 0x02
  fe:	ab 81       	ldd	r26, Y+3	; 0x03
 100:	bc 81       	ldd	r27, Y+4	; 0x04
 102:	01 97       	sbiw	r24, 0x01	; 1
 104:	a1 09       	sbc	r26, r1
 106:	b1 09       	sbc	r27, r1
 108:	89 83       	std	Y+1, r24	; 0x01
 10a:	9a 83       	std	Y+2, r25	; 0x02
 10c:	ab 83       	std	Y+3, r26	; 0x03
 10e:	bc 83       	std	Y+4, r27	; 0x04
 110:	89 81       	ldd	r24, Y+1	; 0x01
 112:	9a 81       	ldd	r25, Y+2	; 0x02
 114:	ab 81       	ldd	r26, Y+3	; 0x03
 116:	bc 81       	ldd	r27, Y+4	; 0x04
 118:	89 2b       	or	r24, r25
 11a:	8a 2b       	or	r24, r26
 11c:	8b 2b       	or	r24, r27
 11e:	69 f7       	brne	.-38     	; 0xfa <lcd_10us_delay+0x54>
 120:	0f 90       	pop	r0
 122:	0f 90       	pop	r0
 124:	0f 90       	pop	r0
 126:	0f 90       	pop	r0
 128:	df 91       	pop	r29
 12a:	cf 91       	pop	r28
 12c:	08 95       	ret

0000012e <lcd_strobe>:
 12e:	5b 9a       	sbi	0x0b, 3	; 11
 130:	61 e0       	ldi	r22, 0x01	; 1
 132:	70 e0       	ldi	r23, 0x00	; 0
 134:	80 e0       	ldi	r24, 0x00	; 0
 136:	90 e0       	ldi	r25, 0x00	; 0
 138:	0e 94 53 00 	call	0xa6	; 0xa6 <lcd_10us_delay>
 13c:	5b 98       	cbi	0x0b, 3	; 11
 13e:	08 95       	ret

00000140 <lcd_high>:
 140:	88 23       	and	r24, r24
 142:	14 f4       	brge	.+4      	; 0x148 <lcd_high+0x8>
 144:	5f 9a       	sbi	0x0b, 7	; 11
 146:	01 c0       	rjmp	.+2      	; 0x14a <lcd_high+0xa>
 148:	5f 98       	cbi	0x0b, 7	; 11
 14a:	86 ff       	sbrs	r24, 6
 14c:	02 c0       	rjmp	.+4      	; 0x152 <lcd_high+0x12>
 14e:	5e 9a       	sbi	0x0b, 6	; 11
 150:	01 c0       	rjmp	.+2      	; 0x154 <lcd_high+0x14>
 152:	5e 98       	cbi	0x0b, 6	; 11
 154:	85 ff       	sbrs	r24, 5
 156:	02 c0       	rjmp	.+4      	; 0x15c <lcd_high+0x1c>
 158:	5d 9a       	sbi	0x0b, 5	; 11
 15a:	01 c0       	rjmp	.+2      	; 0x15e <lcd_high+0x1e>
 15c:	5d 98       	cbi	0x0b, 5	; 11
 15e:	84 ff       	sbrs	r24, 4
 160:	02 c0       	rjmp	.+4      	; 0x166 <lcd_high+0x26>
 162:	5c 9a       	sbi	0x0b, 4	; 11
 164:	08 95       	ret
 166:	5c 98       	cbi	0x0b, 4	; 11
 168:	08 95       	ret

0000016a <lcd_low>:
 16a:	83 ff       	sbrs	r24, 3
 16c:	02 c0       	rjmp	.+4      	; 0x172 <lcd_low+0x8>
 16e:	5f 9a       	sbi	0x0b, 7	; 11
 170:	01 c0       	rjmp	.+2      	; 0x174 <lcd_low+0xa>
 172:	5f 98       	cbi	0x0b, 7	; 11
 174:	82 ff       	sbrs	r24, 2
 176:	02 c0       	rjmp	.+4      	; 0x17c <lcd_low+0x12>
 178:	5e 9a       	sbi	0x0b, 6	; 11
 17a:	01 c0       	rjmp	.+2      	; 0x17e <lcd_low+0x14>
 17c:	5e 98       	cbi	0x0b, 6	; 11
 17e:	81 ff       	sbrs	r24, 1
 180:	02 c0       	rjmp	.+4      	; 0x186 <lcd_low+0x1c>
 182:	5d 9a       	sbi	0x0b, 5	; 11
 184:	01 c0       	rjmp	.+2      	; 0x188 <lcd_low+0x1e>
 186:	5d 98       	cbi	0x0b, 5	; 11
 188:	80 ff       	sbrs	r24, 0
 18a:	02 c0       	rjmp	.+4      	; 0x190 <lcd_low+0x26>
 18c:	5c 9a       	sbi	0x0b, 4	; 11
 18e:	08 95       	ret
 190:	5c 98       	cbi	0x0b, 4	; 11
 192:	08 95       	ret

00000194 <lcd_write>:
 194:	cf 93       	push	r28
 196:	c8 2f       	mov	r28, r24
 198:	0e 94 a0 00 	call	0x140	; 0x140 <lcd_high>
 19c:	0e 94 97 00 	call	0x12e	; 0x12e <lcd_strobe>
 1a0:	8c 2f       	mov	r24, r28
 1a2:	0e 94 b5 00 	call	0x16a	; 0x16a <lcd_low>
 1a6:	0e 94 97 00 	call	0x12e	; 0x12e <lcd_strobe>
 1aa:	65 e0       	ldi	r22, 0x05	; 5
 1ac:	70 e0       	ldi	r23, 0x00	; 0
 1ae:	80 e0       	ldi	r24, 0x00	; 0
 1b0:	90 e0       	ldi	r25, 0x00	; 0
 1b2:	0e 94 53 00 	call	0xa6	; 0xa6 <lcd_10us_delay>
 1b6:	cf 91       	pop	r28
 1b8:	08 95       	ret

000001ba <lcd_clrscr>:
 1ba:	28 98       	cbi	0x05, 0	; 5
 1bc:	81 e0       	ldi	r24, 0x01	; 1
 1be:	0e 94 ca 00 	call	0x194	; 0x194 <lcd_write>
 1c2:	68 ec       	ldi	r22, 0xC8	; 200
 1c4:	70 e0       	ldi	r23, 0x00	; 0
 1c6:	80 e0       	ldi	r24, 0x00	; 0
 1c8:	90 e0       	ldi	r25, 0x00	; 0
 1ca:	0e 94 53 00 	call	0xa6	; 0xa6 <lcd_10us_delay>
 1ce:	08 95       	ret

000001d0 <lcd_return>:
 1d0:	28 98       	cbi	0x05, 0	; 5
 1d2:	82 e0       	ldi	r24, 0x02	; 2
 1d4:	0e 94 ca 00 	call	0x194	; 0x194 <lcd_write>
 1d8:	68 ec       	ldi	r22, 0xC8	; 200
 1da:	70 e0       	ldi	r23, 0x00	; 0
 1dc:	80 e0       	ldi	r24, 0x00	; 0
 1de:	90 e0       	ldi	r25, 0x00	; 0
 1e0:	0e 94 53 00 	call	0xa6	; 0xa6 <lcd_10us_delay>
 1e4:	08 95       	ret

000001e6 <cursor_shift>:
 1e6:	28 98       	cbi	0x05, 0	; 5
 1e8:	8c 33       	cpi	r24, 0x3C	; 60
 1ea:	19 f0       	breq	.+6      	; 0x1f2 <cursor_shift+0xc>
 1ec:	8e 33       	cpi	r24, 0x3E	; 62
 1ee:	29 f0       	breq	.+10     	; 0x1fa <cursor_shift+0x14>
 1f0:	08 95       	ret
 1f2:	80 e1       	ldi	r24, 0x10	; 16
 1f4:	0e 94 ca 00 	call	0x194	; 0x194 <lcd_write>
 1f8:	08 95       	ret
 1fa:	84 e1       	ldi	r24, 0x14	; 20
 1fc:	0e 94 ca 00 	call	0x194	; 0x194 <lcd_write>
 200:	08 95       	ret

00000202 <lcd_goto>:
 202:	28 98       	cbi	0x05, 0	; 5
 204:	83 30       	cpi	r24, 0x03	; 3
 206:	a9 f0       	breq	.+42     	; 0x232 <lcd_goto+0x30>
 208:	28 f4       	brcc	.+10     	; 0x214 <lcd_goto+0x12>
 20a:	81 30       	cpi	r24, 0x01	; 1
 20c:	41 f0       	breq	.+16     	; 0x21e <lcd_goto+0x1c>
 20e:	82 30       	cpi	r24, 0x02	; 2
 210:	59 f0       	breq	.+22     	; 0x228 <lcd_goto+0x26>
 212:	08 95       	ret
 214:	84 30       	cpi	r24, 0x04	; 4
 216:	91 f0       	breq	.+36     	; 0x23c <lcd_goto+0x3a>
 218:	85 30       	cpi	r24, 0x05	; 5
 21a:	a9 f0       	breq	.+42     	; 0x246 <lcd_goto+0x44>
 21c:	08 95       	ret
 21e:	86 2f       	mov	r24, r22
 220:	80 68       	ori	r24, 0x80	; 128
 222:	0e 94 ca 00 	call	0x194	; 0x194 <lcd_write>
 226:	08 95       	ret
 228:	86 2f       	mov	r24, r22
 22a:	80 6c       	ori	r24, 0xC0	; 192
 22c:	0e 94 ca 00 	call	0x194	; 0x194 <lcd_write>
 230:	08 95       	ret
 232:	86 2f       	mov	r24, r22
 234:	80 69       	ori	r24, 0x90	; 144
 236:	0e 94 ca 00 	call	0x194	; 0x194 <lcd_write>
 23a:	08 95       	ret
 23c:	86 2f       	mov	r24, r22
 23e:	80 6d       	ori	r24, 0xD0	; 208
 240:	0e 94 ca 00 	call	0x194	; 0x194 <lcd_write>
 244:	08 95       	ret
 246:	86 2f       	mov	r24, r22
 248:	80 64       	ori	r24, 0x40	; 64
 24a:	0e 94 ca 00 	call	0x194	; 0x194 <lcd_write>
 24e:	08 95       	ret

00000250 <lcd_setmode>:
 250:	28 98       	cbi	0x05, 0	; 5
 252:	0e 94 ca 00 	call	0x194	; 0x194 <lcd_write>
 256:	08 95       	ret

00000258 <lcd_putc>:
 258:	28 9a       	sbi	0x05, 0	; 5
 25a:	0e 94 ca 00 	call	0x194	; 0x194 <lcd_write>
 25e:	61 e0       	ldi	r22, 0x01	; 1
 260:	70 e0       	ldi	r23, 0x00	; 0
 262:	80 e0       	ldi	r24, 0x00	; 0
 264:	90 e0       	ldi	r25, 0x00	; 0
 266:	0e 94 53 00 	call	0xa6	; 0xa6 <lcd_10us_delay>
 26a:	08 95       	ret

0000026c <lcd_puts>:
 26c:	cf 93       	push	r28
 26e:	df 93       	push	r29
 270:	ec 01       	movw	r28, r24
 272:	88 81       	ld	r24, Y
 274:	88 23       	and	r24, r24
 276:	09 f1       	breq	.+66     	; 0x2ba <lcd_puts+0x4e>
 278:	21 96       	adiw	r28, 0x01	; 1
 27a:	8a 30       	cpi	r24, 0x0A	; 10
 27c:	29 f4       	brne	.+10     	; 0x288 <lcd_puts+0x1c>
 27e:	60 e0       	ldi	r22, 0x00	; 0
 280:	82 e0       	ldi	r24, 0x02	; 2
 282:	0e 94 01 01 	call	0x202	; 0x202 <lcd_goto>
 286:	16 c0       	rjmp	.+44     	; 0x2b4 <lcd_puts+0x48>
 288:	8d 30       	cpi	r24, 0x0D	; 13
 28a:	19 f4       	brne	.+6      	; 0x292 <lcd_puts+0x26>
 28c:	0e 94 e8 00 	call	0x1d0	; 0x1d0 <lcd_return>
 290:	11 c0       	rjmp	.+34     	; 0x2b4 <lcd_puts+0x48>
 292:	89 30       	cpi	r24, 0x09	; 9
 294:	69 f4       	brne	.+26     	; 0x2b0 <lcd_puts+0x44>
 296:	8e e3       	ldi	r24, 0x3E	; 62
 298:	0e 94 f3 00 	call	0x1e6	; 0x1e6 <cursor_shift>
 29c:	8e e3       	ldi	r24, 0x3E	; 62
 29e:	0e 94 f3 00 	call	0x1e6	; 0x1e6 <cursor_shift>
 2a2:	8e e3       	ldi	r24, 0x3E	; 62
 2a4:	0e 94 f3 00 	call	0x1e6	; 0x1e6 <cursor_shift>
 2a8:	8e e3       	ldi	r24, 0x3E	; 62
 2aa:	0e 94 f3 00 	call	0x1e6	; 0x1e6 <cursor_shift>
 2ae:	02 c0       	rjmp	.+4      	; 0x2b4 <lcd_puts+0x48>
 2b0:	0e 94 2c 01 	call	0x258	; 0x258 <lcd_putc>
 2b4:	89 91       	ld	r24, Y+
 2b6:	81 11       	cpse	r24, r1
 2b8:	e0 cf       	rjmp	.-64     	; 0x27a <lcd_puts+0xe>
 2ba:	df 91       	pop	r29
 2bc:	cf 91       	pop	r28
 2be:	08 95       	ret

000002c0 <lcd_loadchar>:
 2c0:	0f 93       	push	r16
 2c2:	1f 93       	push	r17
 2c4:	cf 93       	push	r28
 2c6:	df 93       	push	r29
 2c8:	8c 01       	movw	r16, r24
 2ca:	66 0f       	add	r22, r22
 2cc:	66 0f       	add	r22, r22
 2ce:	66 0f       	add	r22, r22
 2d0:	85 e0       	ldi	r24, 0x05	; 5
 2d2:	0e 94 01 01 	call	0x202	; 0x202 <lcd_goto>
 2d6:	e8 01       	movw	r28, r16
 2d8:	08 5f       	subi	r16, 0xF8	; 248
 2da:	1f 4f       	sbci	r17, 0xFF	; 255
 2dc:	89 91       	ld	r24, Y+
 2de:	0e 94 2c 01 	call	0x258	; 0x258 <lcd_putc>
 2e2:	c0 17       	cp	r28, r16
 2e4:	d1 07       	cpc	r29, r17
 2e6:	d1 f7       	brne	.-12     	; 0x2dc <lcd_loadchar+0x1c>
 2e8:	60 e0       	ldi	r22, 0x00	; 0
 2ea:	81 e0       	ldi	r24, 0x01	; 1
 2ec:	0e 94 01 01 	call	0x202	; 0x202 <lcd_goto>
 2f0:	df 91       	pop	r29
 2f2:	cf 91       	pop	r28
 2f4:	1f 91       	pop	r17
 2f6:	0f 91       	pop	r16
 2f8:	08 95       	ret

000002fa <lcd_itos>:
 2fa:	4f 92       	push	r4
 2fc:	5f 92       	push	r5
 2fe:	6f 92       	push	r6
 300:	7f 92       	push	r7
 302:	8f 92       	push	r8
 304:	9f 92       	push	r9
 306:	af 92       	push	r10
 308:	bf 92       	push	r11
 30a:	cf 92       	push	r12
 30c:	df 92       	push	r13
 30e:	ef 92       	push	r14
 310:	ff 92       	push	r15
 312:	4b 01       	movw	r8, r22
 314:	5c 01       	movw	r10, r24
 316:	99 23       	and	r25, r25
 318:	5c f4       	brge	.+22     	; 0x330 <lcd_itos+0x36>
 31a:	8d e2       	ldi	r24, 0x2D	; 45
 31c:	0e 94 2c 01 	call	0x258	; 0x258 <lcd_putc>
 320:	b0 94       	com	r11
 322:	a0 94       	com	r10
 324:	90 94       	com	r9
 326:	80 94       	com	r8
 328:	81 1c       	adc	r8, r1
 32a:	91 1c       	adc	r9, r1
 32c:	a1 1c       	adc	r10, r1
 32e:	b1 1c       	adc	r11, r1
 330:	8a e0       	ldi	r24, 0x0A	; 10
 332:	88 16       	cp	r8, r24
 334:	91 04       	cpc	r9, r1
 336:	a1 04       	cpc	r10, r1
 338:	b1 04       	cpc	r11, r1
 33a:	0c f4       	brge	.+2      	; 0x33e <lcd_itos+0x44>
 33c:	6b c0       	rjmp	.+214    	; 0x414 <lcd_itos+0x11a>
 33e:	c1 2c       	mov	r12, r1
 340:	d1 2c       	mov	r13, r1
 342:	76 01       	movw	r14, r12
 344:	c3 94       	inc	r12
 346:	cc 0c       	add	r12, r12
 348:	dd 1c       	adc	r13, r13
 34a:	ee 1c       	adc	r14, r14
 34c:	ff 1c       	adc	r15, r15
 34e:	d7 01       	movw	r26, r14
 350:	c6 01       	movw	r24, r12
 352:	88 0f       	add	r24, r24
 354:	99 1f       	adc	r25, r25
 356:	aa 1f       	adc	r26, r26
 358:	bb 1f       	adc	r27, r27
 35a:	88 0f       	add	r24, r24
 35c:	99 1f       	adc	r25, r25
 35e:	aa 1f       	adc	r26, r26
 360:	bb 1f       	adc	r27, r27
 362:	c8 0e       	add	r12, r24
 364:	d9 1e       	adc	r13, r25
 366:	ea 1e       	adc	r14, r26
 368:	fb 1e       	adc	r15, r27
 36a:	c5 01       	movw	r24, r10
 36c:	b4 01       	movw	r22, r8
 36e:	a7 01       	movw	r20, r14
 370:	96 01       	movw	r18, r12
 372:	0e 94 7a 05 	call	0xaf4	; 0xaf4 <__divmodsi4>
 376:	2a 30       	cpi	r18, 0x0A	; 10
 378:	31 05       	cpc	r19, r1
 37a:	41 05       	cpc	r20, r1
 37c:	51 05       	cpc	r21, r1
 37e:	1c f7       	brge	.-58     	; 0x346 <lcd_itos+0x4c>
 380:	80 e3       	ldi	r24, 0x30	; 48
 382:	82 0f       	add	r24, r18
 384:	0e 94 2c 01 	call	0x258	; 0x258 <lcd_putc>
 388:	c7 01       	movw	r24, r14
 38a:	b6 01       	movw	r22, r12
 38c:	2a e0       	ldi	r18, 0x0A	; 10
 38e:	30 e0       	ldi	r19, 0x00	; 0
 390:	40 e0       	ldi	r20, 0x00	; 0
 392:	50 e0       	ldi	r21, 0x00	; 0
 394:	0e 94 7a 05 	call	0xaf4	; 0xaf4 <__divmodsi4>
 398:	69 01       	movw	r12, r18
 39a:	7a 01       	movw	r14, r20
 39c:	12 16       	cp	r1, r18
 39e:	13 06       	cpc	r1, r19
 3a0:	14 06       	cpc	r1, r20
 3a2:	15 06       	cpc	r1, r21
 3a4:	dc f5       	brge	.+118    	; 0x41c <lcd_itos+0x122>
 3a6:	0f 2e       	mov	r0, r31
 3a8:	fa e0       	ldi	r31, 0x0A	; 10
 3aa:	4f 2e       	mov	r4, r31
 3ac:	51 2c       	mov	r5, r1
 3ae:	61 2c       	mov	r6, r1
 3b0:	71 2c       	mov	r7, r1
 3b2:	f0 2d       	mov	r31, r0
 3b4:	b7 01       	movw	r22, r14
 3b6:	a6 01       	movw	r20, r12
 3b8:	44 0f       	add	r20, r20
 3ba:	55 1f       	adc	r21, r21
 3bc:	66 1f       	adc	r22, r22
 3be:	77 1f       	adc	r23, r23
 3c0:	db 01       	movw	r26, r22
 3c2:	ca 01       	movw	r24, r20
 3c4:	88 0f       	add	r24, r24
 3c6:	99 1f       	adc	r25, r25
 3c8:	aa 1f       	adc	r26, r26
 3ca:	bb 1f       	adc	r27, r27
 3cc:	88 0f       	add	r24, r24
 3ce:	99 1f       	adc	r25, r25
 3d0:	aa 1f       	adc	r26, r26
 3d2:	bb 1f       	adc	r27, r27
 3d4:	9a 01       	movw	r18, r20
 3d6:	ab 01       	movw	r20, r22
 3d8:	28 0f       	add	r18, r24
 3da:	39 1f       	adc	r19, r25
 3dc:	4a 1f       	adc	r20, r26
 3de:	5b 1f       	adc	r21, r27
 3e0:	c5 01       	movw	r24, r10
 3e2:	b4 01       	movw	r22, r8
 3e4:	0e 94 7a 05 	call	0xaf4	; 0xaf4 <__divmodsi4>
 3e8:	a7 01       	movw	r20, r14
 3ea:	96 01       	movw	r18, r12
 3ec:	0e 94 7a 05 	call	0xaf4	; 0xaf4 <__divmodsi4>
 3f0:	80 e3       	ldi	r24, 0x30	; 48
 3f2:	82 0f       	add	r24, r18
 3f4:	0e 94 2c 01 	call	0x258	; 0x258 <lcd_putc>
 3f8:	c7 01       	movw	r24, r14
 3fa:	b6 01       	movw	r22, r12
 3fc:	a3 01       	movw	r20, r6
 3fe:	92 01       	movw	r18, r4
 400:	0e 94 7a 05 	call	0xaf4	; 0xaf4 <__divmodsi4>
 404:	69 01       	movw	r12, r18
 406:	7a 01       	movw	r14, r20
 408:	12 16       	cp	r1, r18
 40a:	13 06       	cpc	r1, r19
 40c:	14 06       	cpc	r1, r20
 40e:	15 06       	cpc	r1, r21
 410:	8c f2       	brlt	.-94     	; 0x3b4 <lcd_itos+0xba>
 412:	04 c0       	rjmp	.+8      	; 0x41c <lcd_itos+0x122>
 414:	80 e3       	ldi	r24, 0x30	; 48
 416:	88 0d       	add	r24, r8
 418:	0e 94 2c 01 	call	0x258	; 0x258 <lcd_putc>
 41c:	ff 90       	pop	r15
 41e:	ef 90       	pop	r14
 420:	df 90       	pop	r13
 422:	cf 90       	pop	r12
 424:	bf 90       	pop	r11
 426:	af 90       	pop	r10
 428:	9f 90       	pop	r9
 42a:	8f 90       	pop	r8
 42c:	7f 90       	pop	r7
 42e:	6f 90       	pop	r6
 430:	5f 90       	pop	r5
 432:	4f 90       	pop	r4
 434:	08 95       	ret

00000436 <lcd_init>:
 436:	28 98       	cbi	0x05, 0	; 5
 438:	88 e2       	ldi	r24, 0x28	; 40
 43a:	0e 94 a0 00 	call	0x140	; 0x140 <lcd_high>
 43e:	0e 94 97 00 	call	0x12e	; 0x12e <lcd_strobe>
 442:	65 e0       	ldi	r22, 0x05	; 5
 444:	70 e0       	ldi	r23, 0x00	; 0
 446:	80 e0       	ldi	r24, 0x00	; 0
 448:	90 e0       	ldi	r25, 0x00	; 0
 44a:	0e 94 53 00 	call	0xa6	; 0xa6 <lcd_10us_delay>
 44e:	0e 94 97 00 	call	0x12e	; 0x12e <lcd_strobe>
 452:	65 e0       	ldi	r22, 0x05	; 5
 454:	70 e0       	ldi	r23, 0x00	; 0
 456:	80 e0       	ldi	r24, 0x00	; 0
 458:	90 e0       	ldi	r25, 0x00	; 0
 45a:	0e 94 53 00 	call	0xa6	; 0xa6 <lcd_10us_delay>
 45e:	88 e2       	ldi	r24, 0x28	; 40
 460:	0e 94 b5 00 	call	0x16a	; 0x16a <lcd_low>
 464:	0e 94 97 00 	call	0x12e	; 0x12e <lcd_strobe>
 468:	65 e0       	ldi	r22, 0x05	; 5
 46a:	70 e0       	ldi	r23, 0x00	; 0
 46c:	80 e0       	ldi	r24, 0x00	; 0
 46e:	90 e0       	ldi	r25, 0x00	; 0
 470:	0e 94 53 00 	call	0xa6	; 0xa6 <lcd_10us_delay>
 474:	8c e0       	ldi	r24, 0x0C	; 12
 476:	0e 94 28 01 	call	0x250	; 0x250 <lcd_setmode>
 47a:	86 e0       	ldi	r24, 0x06	; 6
 47c:	0e 94 28 01 	call	0x250	; 0x250 <lcd_setmode>
 480:	0e 94 dd 00 	call	0x1ba	; 0x1ba <lcd_clrscr>
 484:	0e 94 e8 00 	call	0x1d0	; 0x1d0 <lcd_return>
 488:	08 95       	ret

0000048a <read_adc>:
	
	
// Read the AD conversion result
unsigned int read_adc(unsigned char adc_input)
{
	ADMUX=adc_input | ADC_VREF_TYPE;
 48a:	80 64       	ori	r24, 0x40	; 64
 48c:	80 93 7c 00 	sts	0x007C, r24
	#else
		//round up by default
		__ticks_dc = (uint32_t)(ceil(fabs(__tmp)));
	#endif

	__builtin_avr_delay_cycles(__ticks_dc);
 490:	85 e3       	ldi	r24, 0x35	; 53
 492:	8a 95       	dec	r24
 494:	f1 f7       	brne	.-4      	; 0x492 <read_adc+0x8>
 496:	00 00       	nop
	// Delay needed for the stabilization of the ADC input voltage
	_delay_us(10);
	// Start the AD conversion
	ADCSRA|=(1<<ADSC);
 498:	ea e7       	ldi	r30, 0x7A	; 122
 49a:	f0 e0       	ldi	r31, 0x00	; 0
 49c:	80 81       	ld	r24, Z
 49e:	80 64       	ori	r24, 0x40	; 64
 4a0:	80 83       	st	Z, r24
	// Wait for the AD conversion to complete
	while ((ADCSRA & (1<<ADIF))==0);
 4a2:	80 81       	ld	r24, Z
 4a4:	84 ff       	sbrs	r24, 4
 4a6:	fd cf       	rjmp	.-6      	; 0x4a2 <read_adc+0x18>
	ADCSRA|=(1<<ADIF);
 4a8:	ea e7       	ldi	r30, 0x7A	; 122
 4aa:	f0 e0       	ldi	r31, 0x00	; 0
 4ac:	80 81       	ld	r24, Z
 4ae:	80 61       	ori	r24, 0x10	; 16
 4b0:	80 83       	st	Z, r24
	return ADCW;
 4b2:	80 91 78 00 	lds	r24, 0x0078
 4b6:	90 91 79 00 	lds	r25, 0x0079
}
 4ba:	08 95       	ret

000004bc <__vector_13>:

ISR(TIMER1_OVF_vect)
{
 4bc:	1f 92       	push	r1
 4be:	0f 92       	push	r0
 4c0:	0f b6       	in	r0, 0x3f	; 63
 4c2:	0f 92       	push	r0
 4c4:	11 24       	eor	r1, r1
 4c6:	8f 93       	push	r24
	
	// Reinitialize Timer1 value
	TCNT1H=0x63C0 >> 8;
 4c8:	83 e6       	ldi	r24, 0x63	; 99
 4ca:	80 93 85 00 	sts	0x0085, r24
	TCNT1L=0x63C0 & 0xff;
 4ce:	80 ec       	ldi	r24, 0xC0	; 192
 4d0:	80 93 84 00 	sts	0x0084, r24
	// Place your code here
	
}
 4d4:	8f 91       	pop	r24
 4d6:	0f 90       	pop	r0
 4d8:	0f be       	out	0x3f, r0	; 63
 4da:	0f 90       	pop	r0
 4dc:	1f 90       	pop	r1
 4de:	18 95       	reti

000004e0 <DrawProgress>:

char move;

void DrawProgress(int value, int maxValue, int chartercount)
{
 4e0:	2f 92       	push	r2
 4e2:	3f 92       	push	r3
 4e4:	4f 92       	push	r4
 4e6:	5f 92       	push	r5
 4e8:	6f 92       	push	r6
 4ea:	7f 92       	push	r7
 4ec:	8f 92       	push	r8
 4ee:	9f 92       	push	r9
 4f0:	af 92       	push	r10
 4f2:	bf 92       	push	r11
 4f4:	cf 92       	push	r12
 4f6:	df 92       	push	r13
 4f8:	ef 92       	push	r14
 4fa:	ff 92       	push	r15
 4fc:	0f 93       	push	r16
 4fe:	1f 93       	push	r17
 500:	cf 93       	push	r28
 502:	df 93       	push	r29
 504:	f8 2f       	mov	r31, r24
 506:	e9 2f       	mov	r30, r25
 508:	eb 01       	movw	r28, r22
 50a:	8a 01       	movw	r16, r20
	int d;
	int dd;
	d = maxValue/(chartercount*5);
 50c:	9a 01       	movw	r18, r20
 50e:	22 0f       	add	r18, r18
 510:	33 1f       	adc	r19, r19
 512:	22 0f       	add	r18, r18
 514:	33 1f       	adc	r19, r19
 516:	b9 01       	movw	r22, r18
 518:	64 0f       	add	r22, r20
 51a:	75 1f       	adc	r23, r21
 51c:	ce 01       	movw	r24, r28
 51e:	0e 94 44 05 	call	0xa88	; 0xa88 <__divmodhi4>
 522:	3b 01       	movw	r6, r22
 524:	1b 01       	movw	r2, r22
	dd = maxValue/chartercount;
 526:	ce 01       	movw	r24, r28
 528:	b8 01       	movw	r22, r16
 52a:	0e 94 44 05 	call	0xa88	; 0xa88 <__divmodhi4>
	for (int i = 0; i < chartercount; i++)
 52e:	10 16       	cp	r1, r16
 530:	11 06       	cpc	r1, r17
 532:	0c f0       	brlt	.+2      	; 0x536 <DrawProgress+0x56>
 534:	43 c0       	rjmp	.+134    	; 0x5bc <DrawProgress+0xdc>
 536:	7b 01       	movw	r14, r22
	{
		int c = value - i*dd;
		if (c>=d*5) lcd_putc(5);
 538:	53 01       	movw	r10, r6
 53a:	aa 0c       	add	r10, r10
 53c:	bb 1c       	adc	r11, r11
 53e:	aa 0c       	add	r10, r10
 540:	bb 1c       	adc	r11, r11
 542:	65 01       	movw	r12, r10
 544:	c6 0c       	add	r12, r6
 546:	d7 1c       	adc	r13, r7
		else
		if (c>=d*4) lcd_putc(4);
		else		
		if (c>=d*3) lcd_putc(3);
 548:	23 01       	movw	r4, r6
 54a:	44 0c       	add	r4, r4
 54c:	55 1c       	adc	r5, r5
 54e:	64 0c       	add	r6, r4
 550:	75 1c       	adc	r7, r5
 552:	f1 94       	neg	r15
 554:	e1 94       	neg	r14
 556:	f1 08       	sbc	r15, r1
 558:	cf 2f       	mov	r28, r31
 55a:	de 2f       	mov	r29, r30
		else
		if (c>=d*2) lcd_putc(2);
 55c:	81 2c       	mov	r8, r1
 55e:	91 2c       	mov	r9, r1
	d = maxValue/(chartercount*5);
	dd = maxValue/chartercount;
	for (int i = 0; i < chartercount; i++)
	{
		int c = value - i*dd;
		if (c>=d*5) lcd_putc(5);
 560:	cc 15       	cp	r28, r12
 562:	dd 05       	cpc	r29, r13
 564:	24 f0       	brlt	.+8      	; 0x56e <DrawProgress+0x8e>
 566:	85 e0       	ldi	r24, 0x05	; 5
 568:	0e 94 2c 01 	call	0x258	; 0x258 <lcd_putc>
 56c:	1f c0       	rjmp	.+62     	; 0x5ac <DrawProgress+0xcc>
		else
		if (c>=d*4) lcd_putc(4);
 56e:	ca 15       	cp	r28, r10
 570:	db 05       	cpc	r29, r11
 572:	24 f0       	brlt	.+8      	; 0x57c <DrawProgress+0x9c>
 574:	84 e0       	ldi	r24, 0x04	; 4
 576:	0e 94 2c 01 	call	0x258	; 0x258 <lcd_putc>
 57a:	18 c0       	rjmp	.+48     	; 0x5ac <DrawProgress+0xcc>
		else		
		if (c>=d*3) lcd_putc(3);
 57c:	c6 15       	cp	r28, r6
 57e:	d7 05       	cpc	r29, r7
 580:	24 f0       	brlt	.+8      	; 0x58a <DrawProgress+0xaa>
 582:	83 e0       	ldi	r24, 0x03	; 3
 584:	0e 94 2c 01 	call	0x258	; 0x258 <lcd_putc>
 588:	11 c0       	rjmp	.+34     	; 0x5ac <DrawProgress+0xcc>
		else
		if (c>=d*2) lcd_putc(2);
 58a:	c4 15       	cp	r28, r4
 58c:	d5 05       	cpc	r29, r5
 58e:	24 f0       	brlt	.+8      	; 0x598 <DrawProgress+0xb8>
 590:	82 e0       	ldi	r24, 0x02	; 2
 592:	0e 94 2c 01 	call	0x258	; 0x258 <lcd_putc>
 596:	0a c0       	rjmp	.+20     	; 0x5ac <DrawProgress+0xcc>
		else
		if (c>=d) lcd_putc(1);
 598:	c2 15       	cp	r28, r2
 59a:	d3 05       	cpc	r29, r3
 59c:	24 f0       	brlt	.+8      	; 0x5a6 <DrawProgress+0xc6>
 59e:	81 e0       	ldi	r24, 0x01	; 1
 5a0:	0e 94 2c 01 	call	0x258	; 0x258 <lcd_putc>
 5a4:	03 c0       	rjmp	.+6      	; 0x5ac <DrawProgress+0xcc>
		else
		lcd_putc(0);
 5a6:	80 e0       	ldi	r24, 0x00	; 0
 5a8:	0e 94 2c 01 	call	0x258	; 0x258 <lcd_putc>
{
	int d;
	int dd;
	d = maxValue/(chartercount*5);
	dd = maxValue/chartercount;
	for (int i = 0; i < chartercount; i++)
 5ac:	8f ef       	ldi	r24, 0xFF	; 255
 5ae:	88 1a       	sub	r8, r24
 5b0:	98 0a       	sbc	r9, r24
 5b2:	ce 0d       	add	r28, r14
 5b4:	df 1d       	adc	r29, r15
 5b6:	80 16       	cp	r8, r16
 5b8:	91 06       	cpc	r9, r17
 5ba:	91 f6       	brne	.-92     	; 0x560 <DrawProgress+0x80>
		else
		if (c>=d) lcd_putc(1);
		else
		lcd_putc(0);
	}
}
 5bc:	df 91       	pop	r29
 5be:	cf 91       	pop	r28
 5c0:	1f 91       	pop	r17
 5c2:	0f 91       	pop	r16
 5c4:	ff 90       	pop	r15
 5c6:	ef 90       	pop	r14
 5c8:	df 90       	pop	r13
 5ca:	cf 90       	pop	r12
 5cc:	bf 90       	pop	r11
 5ce:	af 90       	pop	r10
 5d0:	9f 90       	pop	r9
 5d2:	8f 90       	pop	r8
 5d4:	7f 90       	pop	r7
 5d6:	6f 90       	pop	r6
 5d8:	5f 90       	pop	r5
 5da:	4f 90       	pop	r4
 5dc:	3f 90       	pop	r3
 5de:	2f 90       	pop	r2
 5e0:	08 95       	ret

000005e2 <main>:
{
	
	// Input/Output Ports initialization
	// Port B initialization
	// Function: Bit7=In Bit6=In Bit5=In Bit4=In Bit3=In Bit2=Out Bit1=Out Bit0=Out
	DDRB=(0<<DDB7) | (0<<DDB6) | (0<<DDB5) | (0<<DDB4) | (1<<DDB3) | (1<<DDB2) | (1<<DDB1) | (1<<DDB0);
 5e2:	8f e0       	ldi	r24, 0x0F	; 15
 5e4:	84 b9       	out	0x04, r24	; 4
	// State: Bit7=T Bit6=T Bit5=T Bit4=T Bit3=T Bit2=T Bit1=0 Bit0=0
	PORTB=(0<<PORTB7) | (0<<PORTB6) | (0<<PORTB5) | (0<<PORTB4) | (0<<PORTB3) | (0<<PORTB2) | (0<<PORTB1) | (0<<PORTB0);
 5e6:	15 b8       	out	0x05, r1	; 5

	// Port C initialization
	// Function: Bit6=In Bit5=In Bit4=In Bit3=In Bit2=In Bit1=In Bit0=In
	DDRC=(0<<DDC6) | (0<<DDC5) | (0<<DDC4) | (0<<DDC3) | (0<<DDC2) | (0<<DDC1) | (0<<DDC0);
 5e8:	17 b8       	out	0x07, r1	; 7
	// State: Bit6=T Bit5=T Bit4=T Bit3=T Bit2=T Bit1=T Bit0=T
	PORTC=(0<<PORTC6) | (0<<PORTC5) | (0<<PORTC4) | (0<<PORTC3) | (1<<PORTC2) | (0<<PORTC1) | (0<<PORTC0);
 5ea:	84 e0       	ldi	r24, 0x04	; 4
 5ec:	88 b9       	out	0x08, r24	; 8

	// Port D initialization
	// Function: Bit7=Out Bit6=Out Bit5=Out Bit4=Out Bit3=Out Bit2=In Bit1=In Bit0=In
	DDRD=(1<<DDD7) | (1<<DDD6) | (1<<DDD5) | (1<<DDD4) | (1<<DDD3) | (0<<DDD2) | (0<<DDD1) | (0<<DDD0);
 5ee:	88 ef       	ldi	r24, 0xF8	; 248
 5f0:	8a b9       	out	0x0a, r24	; 10
	// State: Bit7=0 Bit6=0 Bit5=0 Bit4=0 Bit3=0 Bit2=T Bit1=T Bit0=T
	PORTD=(0<<PORTD7) | (0<<PORTD6) | (0<<PORTD5) | (0<<PORTD4) | (0<<PORTD3) | (0<<PORTD2) | (0<<PORTD1) | (0<<PORTD0);
 5f2:	1b b8       	out	0x0b, r1	; 11
	// Clock source: System Clock
	// Clock value: Timer 0 Stopped
	// Mode: Normal top=0xFF
	// OC0A output: Disconnected
	// OC0B output: Disconnected
	TCCR0A=(0<<COM0A1) | (0<<COM0A0) | (0<<COM0B1) | (0<<COM0B0) | (0<<WGM01) | (0<<WGM00);
 5f4:	14 bc       	out	0x24, r1	; 36
	TCCR0B=(0<<WGM02) | (0<<CS02) | (0<<CS01) | (0<<CS00);
 5f6:	15 bc       	out	0x25, r1	; 37
	TCNT0=0x00;
 5f8:	16 bc       	out	0x26, r1	; 38
	OCR0A=0x00;
 5fa:	17 bc       	out	0x27, r1	; 39
	OCR0B=0x00;
 5fc:	18 bc       	out	0x28, r1	; 40
	// Timer Period: 20 ms
	// Timer1 Overflow Interrupt: On
	// Input Capture Interrupt: Off
	// Compare A Match Interrupt: Off
	// Compare B Match Interrupt: Off
	TCCR1A=(0<<COM1A1) | (0<<COM1A0) | (0<<COM1B1) | (0<<COM1B0) | (0<<WGM11) | (0<<WGM10);
 5fe:	10 92 80 00 	sts	0x0080, r1
	TCCR1B=(0<<ICNC1) | (0<<ICES1) | (0<<WGM13) | (0<<WGM12) | (0<<CS12) | (1<<CS11) | (0<<CS10);
 602:	82 e0       	ldi	r24, 0x02	; 2
 604:	80 93 81 00 	sts	0x0081, r24
	TCNT1H=0x63;
 608:	83 e6       	ldi	r24, 0x63	; 99
 60a:	80 93 85 00 	sts	0x0085, r24
	TCNT1L=0xC0;
 60e:	80 ec       	ldi	r24, 0xC0	; 192
 610:	80 93 84 00 	sts	0x0084, r24
	ICR1H=0x00;
 614:	10 92 87 00 	sts	0x0087, r1
	ICR1L=0x00;
 618:	10 92 86 00 	sts	0x0086, r1
	OCR1AH=0x00;
 61c:	10 92 89 00 	sts	0x0089, r1
	OCR1AL=0x00;
 620:	10 92 88 00 	sts	0x0088, r1
	OCR1BH=0x00;
 624:	10 92 8b 00 	sts	0x008B, r1
	OCR1BL=0x00;
 628:	10 92 8a 00 	sts	0x008A, r1
	// OC2A output: Non-Inverted PWM
	// OC2B output: Disconnected
	// Timer Period: 0,512 ms
	// Output Pulse(s):
	// OC2A Period: 0,512 ms Width: 0,512 ms
	ASSR=(0<<EXCLK) | (0<<AS2);
 62c:	10 92 b6 00 	sts	0x00B6, r1
	TCCR2A=(1<<COM2A1) | (0<<COM2A0) | (0<<COM2B1) | (0<<COM2B0) | (1<<WGM21) | (1<<WGM20);
 630:	83 e8       	ldi	r24, 0x83	; 131
 632:	80 93 b0 00 	sts	0x00B0, r24
	TCCR2B=(0<<WGM22) | (0<<CS22) | (1<<CS21) | (1<<CS20);
 636:	83 e0       	ldi	r24, 0x03	; 3
 638:	80 93 b1 00 	sts	0x00B1, r24
	TCNT2=0x00;
 63c:	10 92 b2 00 	sts	0x00B2, r1
	OCR2A=0xFF;
 640:	8f ef       	ldi	r24, 0xFF	; 255
 642:	80 93 b3 00 	sts	0x00B3, r24
	OCR2B=0x00;
 646:	10 92 b4 00 	sts	0x00B4, r1

	
	// Timer/Counter 0 Interrupt(s) initialization
	TIMSK0=(0<<OCIE0B) | (0<<OCIE0A) | (0<<TOIE0);
 64a:	10 92 6e 00 	sts	0x006E, r1

	// Timer/Counter 1 Interrupt(s) initialization
	TIMSK1=(0<<ICIE1) | (0<<OCIE1B) | (0<<OCIE1A) | (1<<TOIE1);
 64e:	81 e0       	ldi	r24, 0x01	; 1
 650:	80 93 6f 00 	sts	0x006F, r24

	// Timer/Counter 2 Interrupt(s) initialization
	TIMSK2=(0<<OCIE2B) | (0<<OCIE2A) | (0<<TOIE2);
 654:	10 92 70 00 	sts	0x0070, r1
	// ADC Clock frequency: 1000,000 kHz
	// ADC Voltage Reference: AVCC pin
	// ADC Auto Trigger Source: ADC Stopped
	// Digital input buffers on ADC0: Off, ADC1: Off, ADC2: Off, ADC3: On
	// ADC4: Off, ADC5: Off
	DIDR0=(1<<ADC5D) | (1<<ADC4D) | (0<<ADC3D) | (1<<ADC2D) | (1<<ADC1D) | (1<<ADC0D);
 658:	87 e3       	ldi	r24, 0x37	; 55
 65a:	80 93 7e 00 	sts	0x007E, r24
	ADMUX=ADC_VREF_TYPE;
 65e:	80 e4       	ldi	r24, 0x40	; 64
 660:	80 93 7c 00 	sts	0x007C, r24
	ADCSRA=(1<<ADEN) | (0<<ADSC) | (0<<ADATE) | (0<<ADIF) | (0<<ADIE) | (1<<ADPS2) | (0<<ADPS1) | (0<<ADPS0);
 664:	84 e8       	ldi	r24, 0x84	; 132
 666:	80 93 7a 00 	sts	0x007A, r24
	ADCSRB=(0<<ADTS2) | (0<<ADTS1) | (0<<ADTS0);
 66a:	10 92 7b 00 	sts	0x007B, r1
	
	
	lcd_init();
 66e:	0e 94 1b 02 	call	0x436	; 0x436 <lcd_init>
	lcd_loadchar(bar0, 0);
 672:	60 e0       	ldi	r22, 0x00	; 0
 674:	88 e2       	ldi	r24, 0x28	; 40
 676:	91 e0       	ldi	r25, 0x01	; 1
 678:	0e 94 60 01 	call	0x2c0	; 0x2c0 <lcd_loadchar>
	lcd_loadchar(bar1, 1);
 67c:	61 e0       	ldi	r22, 0x01	; 1
 67e:	80 e2       	ldi	r24, 0x20	; 32
 680:	91 e0       	ldi	r25, 0x01	; 1
 682:	0e 94 60 01 	call	0x2c0	; 0x2c0 <lcd_loadchar>
	lcd_loadchar(bar2, 2);
 686:	62 e0       	ldi	r22, 0x02	; 2
 688:	88 e1       	ldi	r24, 0x18	; 24
 68a:	91 e0       	ldi	r25, 0x01	; 1
 68c:	0e 94 60 01 	call	0x2c0	; 0x2c0 <lcd_loadchar>
	lcd_loadchar(bar3, 3);
 690:	63 e0       	ldi	r22, 0x03	; 3
 692:	80 e1       	ldi	r24, 0x10	; 16
 694:	91 e0       	ldi	r25, 0x01	; 1
 696:	0e 94 60 01 	call	0x2c0	; 0x2c0 <lcd_loadchar>
	lcd_loadchar(bar4, 4);
 69a:	64 e0       	ldi	r22, 0x04	; 4
 69c:	88 e0       	ldi	r24, 0x08	; 8
 69e:	91 e0       	ldi	r25, 0x01	; 1
 6a0:	0e 94 60 01 	call	0x2c0	; 0x2c0 <lcd_loadchar>
	lcd_loadchar(bar5, 5);
 6a4:	65 e0       	ldi	r22, 0x05	; 5
 6a6:	80 e0       	ldi	r24, 0x00	; 0
 6a8:	91 e0       	ldi	r25, 0x01	; 1
 6aa:	0e 94 60 01 	call	0x2c0	; 0x2c0 <lcd_loadchar>
	
	sei();
 6ae:	78 94       	sei
		lcd_goto(LCD_2nd_LINE,0);
		lcd_itos(UserFanSpeed/10.24);
		lcd_puts("% ");
		lcd_goto(LCD_2nd_LINE,4);
		test = UserFanSpeed/4;
		if (OCR2A != test)
 6b0:	c3 eb       	ldi	r28, 0xB3	; 179
 6b2:	d0 e0       	ldi	r29, 0x00	; 0
		{
			if (Gerkon_mode > -GERKON_TIMING) Gerkon_mode--;
		}
		
		if HEATER_SLEEP 
			NeedFanTemperature = SLEEP_FAN_TEMPERATURE;
 6b4:	02 e3       	ldi	r16, 0x32	; 50
 6b6:	10 e0       	ldi	r17, 0x00	; 0
	sei();
	
    /* Replace with your application code */
    while (1) 
    {
		UserFanSpeed = read_adc(1);
 6b8:	81 e0       	ldi	r24, 0x01	; 1
 6ba:	0e 94 45 02 	call	0x48a	; 0x48a <read_adc>
 6be:	90 93 4e 01 	sts	0x014E, r25
 6c2:	80 93 4d 01 	sts	0x014D, r24
		UserFanTemperature = read_adc(0);
 6c6:	80 e0       	ldi	r24, 0x00	; 0
 6c8:	0e 94 45 02 	call	0x48a	; 0x48a <read_adc>
 6cc:	90 93 4b 01 	sts	0x014B, r25
 6d0:	80 93 4a 01 	sts	0x014A, r24
		CurrenFanTemperature = read_adc(4);
 6d4:	84 e0       	ldi	r24, 0x04	; 4
 6d6:	0e 94 45 02 	call	0x48a	; 0x48a <read_adc>
 6da:	90 93 47 01 	sts	0x0147, r25
 6de:	80 93 46 01 	sts	0x0146, r24
		
		if (BitIsClear(PIND, PIND2))
 6e2:	4a 99       	sbic	0x09, 2	; 9
 6e4:	0e c0       	rjmp	.+28     	; 0x702 <main+0x120>
		{
			if (Gerkon_mode < GERKON_TIMING) Gerkon_mode++;
 6e6:	20 91 42 01 	lds	r18, 0x0142
 6ea:	30 91 43 01 	lds	r19, 0x0143
 6ee:	25 30       	cpi	r18, 0x05	; 5
 6f0:	31 05       	cpc	r19, r1
 6f2:	ac f4       	brge	.+42     	; 0x71e <main+0x13c>
 6f4:	2f 5f       	subi	r18, 0xFF	; 255
 6f6:	3f 4f       	sbci	r19, 0xFF	; 255
 6f8:	30 93 43 01 	sts	0x0143, r19
 6fc:	20 93 42 01 	sts	0x0142, r18
 700:	0e c0       	rjmp	.+28     	; 0x71e <main+0x13c>
		}
		else
		{
			if (Gerkon_mode > -GERKON_TIMING) Gerkon_mode--;
 702:	20 91 42 01 	lds	r18, 0x0142
 706:	30 91 43 01 	lds	r19, 0x0143
 70a:	2c 3f       	cpi	r18, 0xFC	; 252
 70c:	4f ef       	ldi	r20, 0xFF	; 255
 70e:	34 07       	cpc	r19, r20
 710:	34 f0       	brlt	.+12     	; 0x71e <main+0x13c>
 712:	21 50       	subi	r18, 0x01	; 1
 714:	31 09       	sbc	r19, r1
 716:	30 93 43 01 	sts	0x0143, r19
 71a:	20 93 42 01 	sts	0x0142, r18
		}
		
		if HEATER_SLEEP 
 71e:	20 91 42 01 	lds	r18, 0x0142
 722:	30 91 43 01 	lds	r19, 0x0143
 726:	12 16       	cp	r1, r18
 728:	13 06       	cpc	r1, r19
 72a:	2c f4       	brge	.+10     	; 0x736 <main+0x154>
			NeedFanTemperature = SLEEP_FAN_TEMPERATURE;
 72c:	10 93 49 01 	sts	0x0149, r17
 730:	00 93 48 01 	sts	0x0148, r16
 734:	08 c0       	rjmp	.+16     	; 0x746 <main+0x164>
		else 
			NeedFanTemperature = UserFanTemperature;
 736:	20 91 4a 01 	lds	r18, 0x014A
 73a:	30 91 4b 01 	lds	r19, 0x014B
 73e:	30 93 49 01 	sts	0x0149, r19
 742:	20 93 48 01 	sts	0x0148, r18
		
			
		if (CurrenFanTemperature < NeedFanTemperature)
 746:	20 91 48 01 	lds	r18, 0x0148
 74a:	30 91 49 01 	lds	r19, 0x0149
 74e:	82 17       	cp	r24, r18
 750:	93 07       	cpc	r25, r19
 752:	14 f4       	brge	.+4      	; 0x758 <main+0x176>
			SetBit(PORTB, PORTB2);
 754:	2a 9a       	sbi	0x05, 2	; 5
 756:	01 c0       	rjmp	.+2      	; 0x75a <main+0x178>
		else
			ClearBit(PORTB, PORTB2);
 758:	2a 98       	cbi	0x05, 2	; 5
		
		
		
		lcd_goto(LCD_1st_LINE,0);
 75a:	60 e0       	ldi	r22, 0x00	; 0
 75c:	81 e0       	ldi	r24, 0x01	; 1
 75e:	0e 94 01 01 	call	0x202	; 0x202 <lcd_goto>
		lcd_itos(UserFanTemperature);
 762:	60 91 4a 01 	lds	r22, 0x014A
 766:	70 91 4b 01 	lds	r23, 0x014B
 76a:	07 2e       	mov	r0, r23
 76c:	00 0c       	add	r0, r0
 76e:	88 0b       	sbc	r24, r24
 770:	99 0b       	sbc	r25, r25
 772:	0e 94 7d 01 	call	0x2fa	; 0x2fa <lcd_itos>
		lcd_puts("C   Real:");
 776:	80 e3       	ldi	r24, 0x30	; 48
 778:	91 e0       	ldi	r25, 0x01	; 1
 77a:	0e 94 36 01 	call	0x26c	; 0x26c <lcd_puts>
		lcd_itos(CurrenFanTemperature);
 77e:	60 91 46 01 	lds	r22, 0x0146
 782:	70 91 47 01 	lds	r23, 0x0147
 786:	07 2e       	mov	r0, r23
 788:	00 0c       	add	r0, r0
 78a:	88 0b       	sbc	r24, r24
 78c:	99 0b       	sbc	r25, r25
 78e:	0e 94 7d 01 	call	0x2fa	; 0x2fa <lcd_itos>
		lcd_puts("C  ");
 792:	8a e3       	ldi	r24, 0x3A	; 58
 794:	91 e0       	ldi	r25, 0x01	; 1
 796:	0e 94 36 01 	call	0x26c	; 0x26c <lcd_puts>
		
		lcd_goto(LCD_2nd_LINE,0);
 79a:	60 e0       	ldi	r22, 0x00	; 0
 79c:	82 e0       	ldi	r24, 0x02	; 2
 79e:	0e 94 01 01 	call	0x202	; 0x202 <lcd_goto>
		lcd_itos(UserFanSpeed/10.24);
 7a2:	60 91 4d 01 	lds	r22, 0x014D
 7a6:	70 91 4e 01 	lds	r23, 0x014E
 7aa:	07 2e       	mov	r0, r23
 7ac:	00 0c       	add	r0, r0
 7ae:	88 0b       	sbc	r24, r24
 7b0:	99 0b       	sbc	r25, r25
 7b2:	0e 94 b8 04 	call	0x970	; 0x970 <__floatsisf>
 7b6:	2a e0       	ldi	r18, 0x0A	; 10
 7b8:	37 ed       	ldi	r19, 0xD7	; 215
 7ba:	43 e2       	ldi	r20, 0x23	; 35
 7bc:	51 e4       	ldi	r21, 0x41	; 65
 7be:	0e 94 0e 04 	call	0x81c	; 0x81c <__divsf3>
 7c2:	0e 94 80 04 	call	0x900	; 0x900 <__fixsfsi>
 7c6:	0e 94 7d 01 	call	0x2fa	; 0x2fa <lcd_itos>
		lcd_puts("% ");
 7ca:	8e e3       	ldi	r24, 0x3E	; 62
 7cc:	91 e0       	ldi	r25, 0x01	; 1
 7ce:	0e 94 36 01 	call	0x26c	; 0x26c <lcd_puts>
		lcd_goto(LCD_2nd_LINE,4);
 7d2:	64 e0       	ldi	r22, 0x04	; 4
 7d4:	82 e0       	ldi	r24, 0x02	; 2
 7d6:	0e 94 01 01 	call	0x202	; 0x202 <lcd_goto>
		test = UserFanSpeed/4;
 7da:	80 91 4d 01 	lds	r24, 0x014D
 7de:	90 91 4e 01 	lds	r25, 0x014E
 7e2:	99 23       	and	r25, r25
 7e4:	0c f4       	brge	.+2      	; 0x7e8 <main+0x206>
 7e6:	03 96       	adiw	r24, 0x03	; 3
 7e8:	95 95       	asr	r25
 7ea:	87 95       	ror	r24
 7ec:	95 95       	asr	r25
 7ee:	87 95       	ror	r24
 7f0:	90 93 45 01 	sts	0x0145, r25
 7f4:	80 93 44 01 	sts	0x0144, r24
		if (OCR2A != test)
 7f8:	28 81       	ld	r18, Y
 7fa:	30 e0       	ldi	r19, 0x00	; 0
 7fc:	82 17       	cp	r24, r18
 7fe:	93 07       	cpc	r25, r19
 800:	09 f4       	brne	.+2      	; 0x804 <main+0x222>
 802:	5a cf       	rjmp	.-332    	; 0x6b8 <main+0xd6>
		{
			OCR2A = test;
 804:	88 83       	st	Y, r24
			DrawProgress(test, 256, 10);
 806:	4a e0       	ldi	r20, 0x0A	; 10
 808:	50 e0       	ldi	r21, 0x00	; 0
 80a:	60 e0       	ldi	r22, 0x00	; 0
 80c:	71 e0       	ldi	r23, 0x01	; 1
 80e:	80 91 44 01 	lds	r24, 0x0144
 812:	90 91 45 01 	lds	r25, 0x0145
 816:	0e 94 70 02 	call	0x4e0	; 0x4e0 <DrawProgress>
 81a:	4e cf       	rjmp	.-356    	; 0x6b8 <main+0xd6>

0000081c <__divsf3>:
 81c:	0e 94 22 04 	call	0x844	; 0x844 <__divsf3x>
 820:	0c 94 0a 05 	jmp	0xa14	; 0xa14 <__fp_round>
 824:	0e 94 03 05 	call	0xa06	; 0xa06 <__fp_pscB>
 828:	58 f0       	brcs	.+22     	; 0x840 <__divsf3+0x24>
 82a:	0e 94 fc 04 	call	0x9f8	; 0x9f8 <__fp_pscA>
 82e:	40 f0       	brcs	.+16     	; 0x840 <__divsf3+0x24>
 830:	29 f4       	brne	.+10     	; 0x83c <__divsf3+0x20>
 832:	5f 3f       	cpi	r21, 0xFF	; 255
 834:	29 f0       	breq	.+10     	; 0x840 <__divsf3+0x24>
 836:	0c 94 f3 04 	jmp	0x9e6	; 0x9e6 <__fp_inf>
 83a:	51 11       	cpse	r21, r1
 83c:	0c 94 3e 05 	jmp	0xa7c	; 0xa7c <__fp_szero>
 840:	0c 94 f9 04 	jmp	0x9f2	; 0x9f2 <__fp_nan>

00000844 <__divsf3x>:
 844:	0e 94 1b 05 	call	0xa36	; 0xa36 <__fp_split3>
 848:	68 f3       	brcs	.-38     	; 0x824 <__divsf3+0x8>

0000084a <__divsf3_pse>:
 84a:	99 23       	and	r25, r25
 84c:	b1 f3       	breq	.-20     	; 0x83a <__divsf3+0x1e>
 84e:	55 23       	and	r21, r21
 850:	91 f3       	breq	.-28     	; 0x836 <__divsf3+0x1a>
 852:	95 1b       	sub	r25, r21
 854:	55 0b       	sbc	r21, r21
 856:	bb 27       	eor	r27, r27
 858:	aa 27       	eor	r26, r26
 85a:	62 17       	cp	r22, r18
 85c:	73 07       	cpc	r23, r19
 85e:	84 07       	cpc	r24, r20
 860:	38 f0       	brcs	.+14     	; 0x870 <__divsf3_pse+0x26>
 862:	9f 5f       	subi	r25, 0xFF	; 255
 864:	5f 4f       	sbci	r21, 0xFF	; 255
 866:	22 0f       	add	r18, r18
 868:	33 1f       	adc	r19, r19
 86a:	44 1f       	adc	r20, r20
 86c:	aa 1f       	adc	r26, r26
 86e:	a9 f3       	breq	.-22     	; 0x85a <__divsf3_pse+0x10>
 870:	35 d0       	rcall	.+106    	; 0x8dc <__divsf3_pse+0x92>
 872:	0e 2e       	mov	r0, r30
 874:	3a f0       	brmi	.+14     	; 0x884 <__divsf3_pse+0x3a>
 876:	e0 e8       	ldi	r30, 0x80	; 128
 878:	32 d0       	rcall	.+100    	; 0x8de <__divsf3_pse+0x94>
 87a:	91 50       	subi	r25, 0x01	; 1
 87c:	50 40       	sbci	r21, 0x00	; 0
 87e:	e6 95       	lsr	r30
 880:	00 1c       	adc	r0, r0
 882:	ca f7       	brpl	.-14     	; 0x876 <__divsf3_pse+0x2c>
 884:	2b d0       	rcall	.+86     	; 0x8dc <__divsf3_pse+0x92>
 886:	fe 2f       	mov	r31, r30
 888:	29 d0       	rcall	.+82     	; 0x8dc <__divsf3_pse+0x92>
 88a:	66 0f       	add	r22, r22
 88c:	77 1f       	adc	r23, r23
 88e:	88 1f       	adc	r24, r24
 890:	bb 1f       	adc	r27, r27
 892:	26 17       	cp	r18, r22
 894:	37 07       	cpc	r19, r23
 896:	48 07       	cpc	r20, r24
 898:	ab 07       	cpc	r26, r27
 89a:	b0 e8       	ldi	r27, 0x80	; 128
 89c:	09 f0       	breq	.+2      	; 0x8a0 <__divsf3_pse+0x56>
 89e:	bb 0b       	sbc	r27, r27
 8a0:	80 2d       	mov	r24, r0
 8a2:	bf 01       	movw	r22, r30
 8a4:	ff 27       	eor	r31, r31
 8a6:	93 58       	subi	r25, 0x83	; 131
 8a8:	5f 4f       	sbci	r21, 0xFF	; 255
 8aa:	3a f0       	brmi	.+14     	; 0x8ba <__divsf3_pse+0x70>
 8ac:	9e 3f       	cpi	r25, 0xFE	; 254
 8ae:	51 05       	cpc	r21, r1
 8b0:	78 f0       	brcs	.+30     	; 0x8d0 <__divsf3_pse+0x86>
 8b2:	0c 94 f3 04 	jmp	0x9e6	; 0x9e6 <__fp_inf>
 8b6:	0c 94 3e 05 	jmp	0xa7c	; 0xa7c <__fp_szero>
 8ba:	5f 3f       	cpi	r21, 0xFF	; 255
 8bc:	e4 f3       	brlt	.-8      	; 0x8b6 <__divsf3_pse+0x6c>
 8be:	98 3e       	cpi	r25, 0xE8	; 232
 8c0:	d4 f3       	brlt	.-12     	; 0x8b6 <__divsf3_pse+0x6c>
 8c2:	86 95       	lsr	r24
 8c4:	77 95       	ror	r23
 8c6:	67 95       	ror	r22
 8c8:	b7 95       	ror	r27
 8ca:	f7 95       	ror	r31
 8cc:	9f 5f       	subi	r25, 0xFF	; 255
 8ce:	c9 f7       	brne	.-14     	; 0x8c2 <__divsf3_pse+0x78>
 8d0:	88 0f       	add	r24, r24
 8d2:	91 1d       	adc	r25, r1
 8d4:	96 95       	lsr	r25
 8d6:	87 95       	ror	r24
 8d8:	97 f9       	bld	r25, 7
 8da:	08 95       	ret
 8dc:	e1 e0       	ldi	r30, 0x01	; 1
 8de:	66 0f       	add	r22, r22
 8e0:	77 1f       	adc	r23, r23
 8e2:	88 1f       	adc	r24, r24
 8e4:	bb 1f       	adc	r27, r27
 8e6:	62 17       	cp	r22, r18
 8e8:	73 07       	cpc	r23, r19
 8ea:	84 07       	cpc	r24, r20
 8ec:	ba 07       	cpc	r27, r26
 8ee:	20 f0       	brcs	.+8      	; 0x8f8 <__divsf3_pse+0xae>
 8f0:	62 1b       	sub	r22, r18
 8f2:	73 0b       	sbc	r23, r19
 8f4:	84 0b       	sbc	r24, r20
 8f6:	ba 0b       	sbc	r27, r26
 8f8:	ee 1f       	adc	r30, r30
 8fa:	88 f7       	brcc	.-30     	; 0x8de <__divsf3_pse+0x94>
 8fc:	e0 95       	com	r30
 8fe:	08 95       	ret

00000900 <__fixsfsi>:
 900:	0e 94 87 04 	call	0x90e	; 0x90e <__fixunssfsi>
 904:	68 94       	set
 906:	b1 11       	cpse	r27, r1
 908:	0c 94 3e 05 	jmp	0xa7c	; 0xa7c <__fp_szero>
 90c:	08 95       	ret

0000090e <__fixunssfsi>:
 90e:	0e 94 23 05 	call	0xa46	; 0xa46 <__fp_splitA>
 912:	88 f0       	brcs	.+34     	; 0x936 <__fixunssfsi+0x28>
 914:	9f 57       	subi	r25, 0x7F	; 127
 916:	98 f0       	brcs	.+38     	; 0x93e <__fixunssfsi+0x30>
 918:	b9 2f       	mov	r27, r25
 91a:	99 27       	eor	r25, r25
 91c:	b7 51       	subi	r27, 0x17	; 23
 91e:	b0 f0       	brcs	.+44     	; 0x94c <__fixunssfsi+0x3e>
 920:	e1 f0       	breq	.+56     	; 0x95a <__fixunssfsi+0x4c>
 922:	66 0f       	add	r22, r22
 924:	77 1f       	adc	r23, r23
 926:	88 1f       	adc	r24, r24
 928:	99 1f       	adc	r25, r25
 92a:	1a f0       	brmi	.+6      	; 0x932 <__fixunssfsi+0x24>
 92c:	ba 95       	dec	r27
 92e:	c9 f7       	brne	.-14     	; 0x922 <__fixunssfsi+0x14>
 930:	14 c0       	rjmp	.+40     	; 0x95a <__fixunssfsi+0x4c>
 932:	b1 30       	cpi	r27, 0x01	; 1
 934:	91 f0       	breq	.+36     	; 0x95a <__fixunssfsi+0x4c>
 936:	0e 94 3d 05 	call	0xa7a	; 0xa7a <__fp_zero>
 93a:	b1 e0       	ldi	r27, 0x01	; 1
 93c:	08 95       	ret
 93e:	0c 94 3d 05 	jmp	0xa7a	; 0xa7a <__fp_zero>
 942:	67 2f       	mov	r22, r23
 944:	78 2f       	mov	r23, r24
 946:	88 27       	eor	r24, r24
 948:	b8 5f       	subi	r27, 0xF8	; 248
 94a:	39 f0       	breq	.+14     	; 0x95a <__fixunssfsi+0x4c>
 94c:	b9 3f       	cpi	r27, 0xF9	; 249
 94e:	cc f3       	brlt	.-14     	; 0x942 <__fixunssfsi+0x34>
 950:	86 95       	lsr	r24
 952:	77 95       	ror	r23
 954:	67 95       	ror	r22
 956:	b3 95       	inc	r27
 958:	d9 f7       	brne	.-10     	; 0x950 <__fixunssfsi+0x42>
 95a:	3e f4       	brtc	.+14     	; 0x96a <__fixunssfsi+0x5c>
 95c:	90 95       	com	r25
 95e:	80 95       	com	r24
 960:	70 95       	com	r23
 962:	61 95       	neg	r22
 964:	7f 4f       	sbci	r23, 0xFF	; 255
 966:	8f 4f       	sbci	r24, 0xFF	; 255
 968:	9f 4f       	sbci	r25, 0xFF	; 255
 96a:	08 95       	ret

0000096c <__floatunsisf>:
 96c:	e8 94       	clt
 96e:	09 c0       	rjmp	.+18     	; 0x982 <__floatsisf+0x12>

00000970 <__floatsisf>:
 970:	97 fb       	bst	r25, 7
 972:	3e f4       	brtc	.+14     	; 0x982 <__floatsisf+0x12>
 974:	90 95       	com	r25
 976:	80 95       	com	r24
 978:	70 95       	com	r23
 97a:	61 95       	neg	r22
 97c:	7f 4f       	sbci	r23, 0xFF	; 255
 97e:	8f 4f       	sbci	r24, 0xFF	; 255
 980:	9f 4f       	sbci	r25, 0xFF	; 255
 982:	99 23       	and	r25, r25
 984:	a9 f0       	breq	.+42     	; 0x9b0 <__floatsisf+0x40>
 986:	f9 2f       	mov	r31, r25
 988:	96 e9       	ldi	r25, 0x96	; 150
 98a:	bb 27       	eor	r27, r27
 98c:	93 95       	inc	r25
 98e:	f6 95       	lsr	r31
 990:	87 95       	ror	r24
 992:	77 95       	ror	r23
 994:	67 95       	ror	r22
 996:	b7 95       	ror	r27
 998:	f1 11       	cpse	r31, r1
 99a:	f8 cf       	rjmp	.-16     	; 0x98c <__floatsisf+0x1c>
 99c:	fa f4       	brpl	.+62     	; 0x9dc <__floatsisf+0x6c>
 99e:	bb 0f       	add	r27, r27
 9a0:	11 f4       	brne	.+4      	; 0x9a6 <__floatsisf+0x36>
 9a2:	60 ff       	sbrs	r22, 0
 9a4:	1b c0       	rjmp	.+54     	; 0x9dc <__floatsisf+0x6c>
 9a6:	6f 5f       	subi	r22, 0xFF	; 255
 9a8:	7f 4f       	sbci	r23, 0xFF	; 255
 9aa:	8f 4f       	sbci	r24, 0xFF	; 255
 9ac:	9f 4f       	sbci	r25, 0xFF	; 255
 9ae:	16 c0       	rjmp	.+44     	; 0x9dc <__floatsisf+0x6c>
 9b0:	88 23       	and	r24, r24
 9b2:	11 f0       	breq	.+4      	; 0x9b8 <__floatsisf+0x48>
 9b4:	96 e9       	ldi	r25, 0x96	; 150
 9b6:	11 c0       	rjmp	.+34     	; 0x9da <__floatsisf+0x6a>
 9b8:	77 23       	and	r23, r23
 9ba:	21 f0       	breq	.+8      	; 0x9c4 <__floatsisf+0x54>
 9bc:	9e e8       	ldi	r25, 0x8E	; 142
 9be:	87 2f       	mov	r24, r23
 9c0:	76 2f       	mov	r23, r22
 9c2:	05 c0       	rjmp	.+10     	; 0x9ce <__floatsisf+0x5e>
 9c4:	66 23       	and	r22, r22
 9c6:	71 f0       	breq	.+28     	; 0x9e4 <__floatsisf+0x74>
 9c8:	96 e8       	ldi	r25, 0x86	; 134
 9ca:	86 2f       	mov	r24, r22
 9cc:	70 e0       	ldi	r23, 0x00	; 0
 9ce:	60 e0       	ldi	r22, 0x00	; 0
 9d0:	2a f0       	brmi	.+10     	; 0x9dc <__floatsisf+0x6c>
 9d2:	9a 95       	dec	r25
 9d4:	66 0f       	add	r22, r22
 9d6:	77 1f       	adc	r23, r23
 9d8:	88 1f       	adc	r24, r24
 9da:	da f7       	brpl	.-10     	; 0x9d2 <__floatsisf+0x62>
 9dc:	88 0f       	add	r24, r24
 9de:	96 95       	lsr	r25
 9e0:	87 95       	ror	r24
 9e2:	97 f9       	bld	r25, 7
 9e4:	08 95       	ret

000009e6 <__fp_inf>:
 9e6:	97 f9       	bld	r25, 7
 9e8:	9f 67       	ori	r25, 0x7F	; 127
 9ea:	80 e8       	ldi	r24, 0x80	; 128
 9ec:	70 e0       	ldi	r23, 0x00	; 0
 9ee:	60 e0       	ldi	r22, 0x00	; 0
 9f0:	08 95       	ret

000009f2 <__fp_nan>:
 9f2:	9f ef       	ldi	r25, 0xFF	; 255
 9f4:	80 ec       	ldi	r24, 0xC0	; 192
 9f6:	08 95       	ret

000009f8 <__fp_pscA>:
 9f8:	00 24       	eor	r0, r0
 9fa:	0a 94       	dec	r0
 9fc:	16 16       	cp	r1, r22
 9fe:	17 06       	cpc	r1, r23
 a00:	18 06       	cpc	r1, r24
 a02:	09 06       	cpc	r0, r25
 a04:	08 95       	ret

00000a06 <__fp_pscB>:
 a06:	00 24       	eor	r0, r0
 a08:	0a 94       	dec	r0
 a0a:	12 16       	cp	r1, r18
 a0c:	13 06       	cpc	r1, r19
 a0e:	14 06       	cpc	r1, r20
 a10:	05 06       	cpc	r0, r21
 a12:	08 95       	ret

00000a14 <__fp_round>:
 a14:	09 2e       	mov	r0, r25
 a16:	03 94       	inc	r0
 a18:	00 0c       	add	r0, r0
 a1a:	11 f4       	brne	.+4      	; 0xa20 <__fp_round+0xc>
 a1c:	88 23       	and	r24, r24
 a1e:	52 f0       	brmi	.+20     	; 0xa34 <__fp_round+0x20>
 a20:	bb 0f       	add	r27, r27
 a22:	40 f4       	brcc	.+16     	; 0xa34 <__fp_round+0x20>
 a24:	bf 2b       	or	r27, r31
 a26:	11 f4       	brne	.+4      	; 0xa2c <__fp_round+0x18>
 a28:	60 ff       	sbrs	r22, 0
 a2a:	04 c0       	rjmp	.+8      	; 0xa34 <__fp_round+0x20>
 a2c:	6f 5f       	subi	r22, 0xFF	; 255
 a2e:	7f 4f       	sbci	r23, 0xFF	; 255
 a30:	8f 4f       	sbci	r24, 0xFF	; 255
 a32:	9f 4f       	sbci	r25, 0xFF	; 255
 a34:	08 95       	ret

00000a36 <__fp_split3>:
 a36:	57 fd       	sbrc	r21, 7
 a38:	90 58       	subi	r25, 0x80	; 128
 a3a:	44 0f       	add	r20, r20
 a3c:	55 1f       	adc	r21, r21
 a3e:	59 f0       	breq	.+22     	; 0xa56 <__fp_splitA+0x10>
 a40:	5f 3f       	cpi	r21, 0xFF	; 255
 a42:	71 f0       	breq	.+28     	; 0xa60 <__fp_splitA+0x1a>
 a44:	47 95       	ror	r20

00000a46 <__fp_splitA>:
 a46:	88 0f       	add	r24, r24
 a48:	97 fb       	bst	r25, 7
 a4a:	99 1f       	adc	r25, r25
 a4c:	61 f0       	breq	.+24     	; 0xa66 <__fp_splitA+0x20>
 a4e:	9f 3f       	cpi	r25, 0xFF	; 255
 a50:	79 f0       	breq	.+30     	; 0xa70 <__fp_splitA+0x2a>
 a52:	87 95       	ror	r24
 a54:	08 95       	ret
 a56:	12 16       	cp	r1, r18
 a58:	13 06       	cpc	r1, r19
 a5a:	14 06       	cpc	r1, r20
 a5c:	55 1f       	adc	r21, r21
 a5e:	f2 cf       	rjmp	.-28     	; 0xa44 <__fp_split3+0xe>
 a60:	46 95       	lsr	r20
 a62:	f1 df       	rcall	.-30     	; 0xa46 <__fp_splitA>
 a64:	08 c0       	rjmp	.+16     	; 0xa76 <__fp_splitA+0x30>
 a66:	16 16       	cp	r1, r22
 a68:	17 06       	cpc	r1, r23
 a6a:	18 06       	cpc	r1, r24
 a6c:	99 1f       	adc	r25, r25
 a6e:	f1 cf       	rjmp	.-30     	; 0xa52 <__fp_splitA+0xc>
 a70:	86 95       	lsr	r24
 a72:	71 05       	cpc	r23, r1
 a74:	61 05       	cpc	r22, r1
 a76:	08 94       	sec
 a78:	08 95       	ret

00000a7a <__fp_zero>:
 a7a:	e8 94       	clt

00000a7c <__fp_szero>:
 a7c:	bb 27       	eor	r27, r27
 a7e:	66 27       	eor	r22, r22
 a80:	77 27       	eor	r23, r23
 a82:	cb 01       	movw	r24, r22
 a84:	97 f9       	bld	r25, 7
 a86:	08 95       	ret

00000a88 <__divmodhi4>:
 a88:	97 fb       	bst	r25, 7
 a8a:	07 2e       	mov	r0, r23
 a8c:	16 f4       	brtc	.+4      	; 0xa92 <__divmodhi4+0xa>
 a8e:	00 94       	com	r0
 a90:	07 d0       	rcall	.+14     	; 0xaa0 <__divmodhi4_neg1>
 a92:	77 fd       	sbrc	r23, 7
 a94:	09 d0       	rcall	.+18     	; 0xaa8 <__divmodhi4_neg2>
 a96:	0e 94 99 05 	call	0xb32	; 0xb32 <__udivmodhi4>
 a9a:	07 fc       	sbrc	r0, 7
 a9c:	05 d0       	rcall	.+10     	; 0xaa8 <__divmodhi4_neg2>
 a9e:	3e f4       	brtc	.+14     	; 0xaae <__divmodhi4_exit>

00000aa0 <__divmodhi4_neg1>:
 aa0:	90 95       	com	r25
 aa2:	81 95       	neg	r24
 aa4:	9f 4f       	sbci	r25, 0xFF	; 255
 aa6:	08 95       	ret

00000aa8 <__divmodhi4_neg2>:
 aa8:	70 95       	com	r23
 aaa:	61 95       	neg	r22
 aac:	7f 4f       	sbci	r23, 0xFF	; 255

00000aae <__divmodhi4_exit>:
 aae:	08 95       	ret

00000ab0 <__udivmodsi4>:
 ab0:	a1 e2       	ldi	r26, 0x21	; 33
 ab2:	1a 2e       	mov	r1, r26
 ab4:	aa 1b       	sub	r26, r26
 ab6:	bb 1b       	sub	r27, r27
 ab8:	fd 01       	movw	r30, r26
 aba:	0d c0       	rjmp	.+26     	; 0xad6 <__udivmodsi4_ep>

00000abc <__udivmodsi4_loop>:
 abc:	aa 1f       	adc	r26, r26
 abe:	bb 1f       	adc	r27, r27
 ac0:	ee 1f       	adc	r30, r30
 ac2:	ff 1f       	adc	r31, r31
 ac4:	a2 17       	cp	r26, r18
 ac6:	b3 07       	cpc	r27, r19
 ac8:	e4 07       	cpc	r30, r20
 aca:	f5 07       	cpc	r31, r21
 acc:	20 f0       	brcs	.+8      	; 0xad6 <__udivmodsi4_ep>
 ace:	a2 1b       	sub	r26, r18
 ad0:	b3 0b       	sbc	r27, r19
 ad2:	e4 0b       	sbc	r30, r20
 ad4:	f5 0b       	sbc	r31, r21

00000ad6 <__udivmodsi4_ep>:
 ad6:	66 1f       	adc	r22, r22
 ad8:	77 1f       	adc	r23, r23
 ada:	88 1f       	adc	r24, r24
 adc:	99 1f       	adc	r25, r25
 ade:	1a 94       	dec	r1
 ae0:	69 f7       	brne	.-38     	; 0xabc <__udivmodsi4_loop>
 ae2:	60 95       	com	r22
 ae4:	70 95       	com	r23
 ae6:	80 95       	com	r24
 ae8:	90 95       	com	r25
 aea:	9b 01       	movw	r18, r22
 aec:	ac 01       	movw	r20, r24
 aee:	bd 01       	movw	r22, r26
 af0:	cf 01       	movw	r24, r30
 af2:	08 95       	ret

00000af4 <__divmodsi4>:
 af4:	05 2e       	mov	r0, r21
 af6:	97 fb       	bst	r25, 7
 af8:	1e f4       	brtc	.+6      	; 0xb00 <__divmodsi4+0xc>
 afa:	00 94       	com	r0
 afc:	0e 94 91 05 	call	0xb22	; 0xb22 <__negsi2>
 b00:	57 fd       	sbrc	r21, 7
 b02:	07 d0       	rcall	.+14     	; 0xb12 <__divmodsi4_neg2>
 b04:	0e 94 58 05 	call	0xab0	; 0xab0 <__udivmodsi4>
 b08:	07 fc       	sbrc	r0, 7
 b0a:	03 d0       	rcall	.+6      	; 0xb12 <__divmodsi4_neg2>
 b0c:	4e f4       	brtc	.+18     	; 0xb20 <__divmodsi4_exit>
 b0e:	0c 94 91 05 	jmp	0xb22	; 0xb22 <__negsi2>

00000b12 <__divmodsi4_neg2>:
 b12:	50 95       	com	r21
 b14:	40 95       	com	r20
 b16:	30 95       	com	r19
 b18:	21 95       	neg	r18
 b1a:	3f 4f       	sbci	r19, 0xFF	; 255
 b1c:	4f 4f       	sbci	r20, 0xFF	; 255
 b1e:	5f 4f       	sbci	r21, 0xFF	; 255

00000b20 <__divmodsi4_exit>:
 b20:	08 95       	ret

00000b22 <__negsi2>:
 b22:	90 95       	com	r25
 b24:	80 95       	com	r24
 b26:	70 95       	com	r23
 b28:	61 95       	neg	r22
 b2a:	7f 4f       	sbci	r23, 0xFF	; 255
 b2c:	8f 4f       	sbci	r24, 0xFF	; 255
 b2e:	9f 4f       	sbci	r25, 0xFF	; 255
 b30:	08 95       	ret

00000b32 <__udivmodhi4>:
 b32:	aa 1b       	sub	r26, r26
 b34:	bb 1b       	sub	r27, r27
 b36:	51 e1       	ldi	r21, 0x11	; 17
 b38:	07 c0       	rjmp	.+14     	; 0xb48 <__udivmodhi4_ep>

00000b3a <__udivmodhi4_loop>:
 b3a:	aa 1f       	adc	r26, r26
 b3c:	bb 1f       	adc	r27, r27
 b3e:	a6 17       	cp	r26, r22
 b40:	b7 07       	cpc	r27, r23
 b42:	10 f0       	brcs	.+4      	; 0xb48 <__udivmodhi4_ep>
 b44:	a6 1b       	sub	r26, r22
 b46:	b7 0b       	sbc	r27, r23

00000b48 <__udivmodhi4_ep>:
 b48:	88 1f       	adc	r24, r24
 b4a:	99 1f       	adc	r25, r25
 b4c:	5a 95       	dec	r21
 b4e:	a9 f7       	brne	.-22     	; 0xb3a <__udivmodhi4_loop>
 b50:	80 95       	com	r24
 b52:	90 95       	com	r25
 b54:	bc 01       	movw	r22, r24
 b56:	cd 01       	movw	r24, r26
 b58:	08 95       	ret

00000b5a <_exit>:
 b5a:	f8 94       	cli

00000b5c <__stop_program>:
 b5c:	ff cf       	rjmp	.-2      	; 0xb5c <__stop_program>
